; Function Attrs: mustprogress nofree norecurse nosync nounwind willreturn memory(readwrite, inaccessiblemem: none) uwtable
define range(i32 -22, 1) i32 @uv_prepare_start(ptr noundef %handle, ptr noundef %cb) local_unnamed_addr #1 {
entry:
  %flags = getelementptr inbounds nuw i8, ptr %handle, i64 88
  %0 = load i32, ptr %flags, align 8
  %and = and i32 %0, 4
  %cmp.not = icmp eq i32 %and, 0
  br i1 %cmp.not, label %if.end, label %return

if.end:                                           ; preds = %entry
  %cmp1 = icmp eq ptr %cb, null
  br i1 %cmp1, label %return, label %if.end3

if.end3:                                          ; preds = %if.end
  %loop = getelementptr inbounds nuw i8, ptr %handle, i64 8
  %1 = load ptr, ptr %loop, align 8
  %prepare_handles = getelementptr inbounds nuw i8, ptr %1, i64 384
  %queue = getelementptr inbounds nuw i8, ptr %handle, i64 104
  %2 = load ptr, ptr %prepare_handles, align 8
  store ptr %2, ptr %queue, align 8
  %prev.i = getelementptr inbounds nuw i8, ptr %handle, i64 112
  store ptr %prepare_handles, ptr %prev.i, align 8
  %prev3.i = getelementptr inbounds nuw i8, ptr %2, i64 8
  store ptr %queue, ptr %prev3.i, align 8
  store ptr %queue, ptr %prepare_handles, align 8
  %prepare_cb = getelementptr inbounds nuw i8, ptr %handle, i64 96
  store ptr %cb, ptr %prepare_cb, align 8
  %3 = load i32, ptr %flags, align 8
  %and5 = and i32 %3, 4
  %cmp6.not = icmp eq i32 %and5, 0
  br i1 %cmp6.not, label %if.end8, label %return

if.end8:                                          ; preds = %if.end3
  %or = or disjoint i32 %3, 4
  store i32 %or, ptr %flags, align 8
  %and11 = and i32 %3, 8
  %cmp12.not = icmp eq i32 %and11, 0
  br i1 %cmp12.not, label %return, label %do.body14

do.body14:                                        ; preds = %if.end8
  %4 = load ptr, ptr %loop, align 8
  %active_handles = getelementptr inbounds nuw i8, ptr %4, i64 8
  %5 = load i32, ptr %active_handles, align 8
  %inc = add i32 %5, 1
  store i32 %inc, ptr %active_handles, align 8
  br label %return

return:                                           ; preds = %if.end3, %do.body14, %if.end8, %if.end, %entry
  %retval.0 = phi i32 [ 0, %entry ], [ -22, %if.end ], [ 0, %if.end8 ], [ 0, %do.body14 ], [ 0, %if.end3 ]
  ret i32 %retval.0
}